; Function Attrs: mustprogress uwtable
define void @_ZN3gmx24CommandLineModuleManager4Impl22ensureHelpModuleExistsEv(ptr noundef nonnull align 8 dereferenceable(129) %0) local_unnamed_addr #0 align 2 personality ptr @__gxx_personality_v0 {
  %2 = alloca %"class.std::unique_ptr.40", align 8
  %3 = getelementptr inbounds i8, ptr %0, i64 112
  %4 = load ptr, ptr %3, align 8
  %5 = icmp eq ptr %4, null
  br i1 %5, label %6, label %_ZNSt10unique_ptrIN3gmx18ICommandLineModuleESt14default_deleteIS1_EED2Ev.exit

6:                                                ; preds = %1
  %7 = tail call noalias noundef nonnull dereferenceable(16) ptr @_Znwm(i64 noundef 16) #25
  %8 = getelementptr inbounds i8, ptr %0, i64 72
  %9 = load ptr, ptr %8, align 8
  %10 = getelementptr inbounds i8, ptr %0, i64 80
  %11 = getelementptr inbounds i8, ptr %0, i64 48
  invoke void @_ZN3gmx21CommandLineHelpModuleC1ERKNS_15IProgramContextERKNSt7__cxx1112basic_stringIcSt11char_traitsIcESaIcEEERKSt3mapIS9_St10unique_ptrINS_18ICommandLineModuleESt14default_deleteISE_EESt4lessIS9_ESaISt4pairISA_SH_EEERKSt6vectorISD_INS_26CommandLineModuleGroupDataESF_ISR_EESaIST_EE(ptr noundef nonnull align 8 dereferenceable(16) %7, ptr noundef nonnull align 8 dereferenceable(8) %9, ptr noundef nonnull align 8 dereferenceable(32) %10, ptr noundef nonnull align 8 dereferenceable(48) %0, ptr noundef nonnull align 8 dereferenceable(24) %11)
          to label %12 unwind label %18

12:                                               ; preds = %6
  store ptr %7, ptr %3, align 8
  store ptr %7, ptr %2, align 8
  invoke void @_ZN3gmx24CommandLineModuleManager4Impl9addModuleESt10unique_ptrINS_18ICommandLineModuleESt14default_deleteIS3_EE(ptr noundef nonnull align 8 dereferenceable(129) %0, ptr noundef nonnull %2)
          to label %13 unwind label %20

13:                                               ; preds = %12
  %14 = load ptr, ptr %2, align 8
  %.not.i = icmp eq ptr %14, null
  br i1 %.not.i, label %_ZNSt10unique_ptrIN3gmx18ICommandLineModuleESt14default_deleteIS1_EED2Ev.exit, label %_ZNKSt14default_deleteIN3gmx18ICommandLineModuleEEclEPS1_.exit.i

_ZNKSt14default_deleteIN3gmx18ICommandLineModuleEEclEPS1_.exit.i: ; preds = %13
  %15 = load ptr, ptr %14, align 8
  %16 = getelementptr inbounds i8, ptr %15, i64 8
  %17 = load ptr, ptr %16, align 8
  tail call void %17(ptr noundef nonnull align 8 dereferenceable(8) %14) #21
  br label %_ZNSt10unique_ptrIN3gmx18ICommandLineModuleESt14default_deleteIS1_EED2Ev.exit

18:                                               ; preds = %6
  %19 = landingpad { ptr, i32 }
          cleanup
  tail call void @_ZdlPv(ptr noundef nonnull %7) #23
  br label %_ZNSt10unique_ptrIN3gmx18ICommandLineModuleESt14default_deleteIS1_EED2Ev.exit6

20:                                               ; preds = %12
  %21 = landingpad { ptr, i32 }
          cleanup
  %22 = load ptr, ptr %2, align 8
  %.not.i4 = icmp eq ptr %22, null
  br i1 %.not.i4, label %_ZNSt10unique_ptrIN3gmx18ICommandLineModuleESt14default_deleteIS1_EED2Ev.exit6, label %_ZNKSt14default_deleteIN3gmx18ICommandLineModuleEEclEPS1_.exit.i5

_ZNKSt14default_deleteIN3gmx18ICommandLineModuleEEclEPS1_.exit.i5: ; preds = %20
  %23 = load ptr, ptr %22, align 8
  %24 = getelementptr inbounds i8, ptr %23, i64 8
  %25 = load ptr, ptr %24, align 8
  tail call void %25(ptr noundef nonnull align 8 dereferenceable(8) %22) #21
  br label %_ZNSt10unique_ptrIN3gmx18ICommandLineModuleESt14default_deleteIS1_EED2Ev.exit6

_ZNSt10unique_ptrIN3gmx18ICommandLineModuleESt14default_deleteIS1_EED2Ev.exit: ; preds = %_ZNKSt14default_deleteIN3gmx18ICommandLineModuleEEclEPS1_.exit.i, %13, %1
  ret void

_ZNSt10unique_ptrIN3gmx18ICommandLineModuleESt14default_deleteIS1_EED2Ev.exit6: ; preds = %_ZNKSt14default_deleteIN3gmx18ICommandLineModuleEEclEPS1_.exit.i5, %20, %18
  %.pn = phi { ptr, i32 } [ %19, %18 ], [ %21, %20 ], [ %21, %_ZNKSt14default_deleteIN3gmx18ICommandLineModuleEEclEPS1_.exit.i5 ]
  resume { ptr, i32 } %.pn
}